ccopy_reg
_reconstructor
p0
(cgoogle.oauth2.credentials
Credentials
p1
c__builtin__
object
p2
Ntp3
Rp4
(dp5
S'_quota_project_id'
p6
NsS'_token_uri'
p7
Vhttps://oauth2.googleapis.com/token
p8
sS'_scopes'
p9
(lp10
S'https://www.googleapis.com/auth/drive'
p11
asS'_default_scopes'
p12
NsS'expiry'
p13
cdatetime
datetime
p14
(S'\x07\xe5\t\x06\x13\x07*\x04\xd1\x05'
p15
tp16
Rp17
sS'token'
p18
Vya29.a0ARrdaM9o_y4oUuP3JuPID20jtdX6OVNJUICU1vTswFfoSxWXPDpiWx6x_UfUitnWGzBuqJXFec_83FobE7MF8UIi2IYjJHSzKWiYYfRtsWvsfk10pCdzHzGOEAX3B7cBs5bbm6RVWlwEkYV4BOCeJReMJWxG
p19
sS'_refresh_token'
p20
V1//0gBXMwhzjtwaTCgYIARAAGBASNwF-L9Ir9t0JwiHN42NqYK3Hbwmo_d8KYgFYmCKsCyO4u2OWMu7KSBvWTRBzBIzu3ouotmURqBw
p21
sS'_client_secret'
p22
VFm0YdWaJurzMkL_ibMVM7ezR
p23
sS'_client_id'
p24
V675987146745-k3oc22o7p1pj6gh5be24dah9lrd9ip1i.apps.googleusercontent.com
p25
sS'_id_token'
p26
NsS'_rapt_token'
p27
Nsb.
