ccopy_reg
_reconstructor
p0
(cgoogle.oauth2.credentials
Credentials
p1
c__builtin__
object
p2
Ntp3
Rp4
(dp5
S'_quota_project_id'
p6
NsS'_token_uri'
p7
Vhttps://oauth2.googleapis.com/token
p8
sS'_scopes'
p9
(lp10
S'https://www.googleapis.com/auth/drive'
p11
asS'_default_scopes'
p12
NsS'expiry'
p13
cdatetime
datetime
p14
(S'\x07\xe5\t\x06\x0e\x1e\x02\x06\xbb\xb8'
p15
tp16
Rp17
sS'token'
p18
Vya29.a0ARrdaM_bkFquSknFQwC59SndjLFjo6hSRpAKT8CSe49CPUaaLyPH8SjjX3YSeDSX_y0H_jI0YtYL3MGktFSLTowQgaZxSzzMMIhq_x3s5QsSlDPPy_fxUNXAoZvQ3EunGMn_YGiV4bC0sSQ72dKHBD6d1PhE
p19
sS'_refresh_token'
p20
V1//0gvMYUl6h3nIcCgYIARAAGBASNwF-L9IrXEnJFxs-D0TkZ-uyUAR4c-7KOIO8fJBp0dFYy-X2AgL08f4aSrfeuuUx4JWQ3mOcGzg
p21
sS'_client_secret'
p22
VQ8QX_rgCljHhrmuF8O0igzVB
p23
sS'_client_id'
p24
V675987146745-44jloiku058efs8ib77fen8vbnplf9dt.apps.googleusercontent.com
p25
sS'_id_token'
p26
NsS'_rapt_token'
p27
Nsb.